target datalayout = "e-m:e-p270:32:32-p271:32:32-p272:64:64-i64:64-i128:128-f80:128-n8:16:32:64-S128"
target triple = "x86_64-pc-linux-gnu"

@.str = private unnamed_addr constant [3 x i8] c"rb\00", align 1

; Function Attrs: inlinehint mustprogress nounwind uwtable
define internal noundef signext i8 @_ZL9U_FAILURE10UErrorCode(i32 noundef %0) #4 {
  %2 = alloca i32, align 4
  store i32 %0, ptr %2, align 4, !tbaa !24
  %3 = load i32, ptr %2, align 4, !tbaa !24
  %4 = icmp sgt i32 %3, 0
  %5 = zext i1 %4 to i8
  ret i8 %5
}

; Function Attrs: mustprogress uwtable
define ptr @ucbuf_autodetect(ptr noundef %0, ptr noundef %1, ptr noundef %2, ptr noundef %3, ptr noundef %4) #0 {
  %6 = alloca ptr, align 8
  %7 = alloca ptr, align 8
  %8 = alloca ptr, align 8
  %9 = alloca ptr, align 8
  %10 = alloca ptr, align 8
  %11 = alloca ptr, align 8
  %12 = alloca ptr, align 8
  %13 = alloca i32, align 4
  store ptr %0, ptr %7, align 8, !tbaa !18
  store ptr %1, ptr %8, align 8, !tbaa !8
  store ptr %2, ptr %9, align 8, !tbaa !11
  store ptr %3, ptr %10, align 8, !tbaa !13
  store ptr %4, ptr %11, align 8, !tbaa !15
  call void @llvm.lifetime.start.p0(i64 8, ptr %12) #10
  store ptr null, ptr %12, align 8, !tbaa !3
  %14 = load ptr, ptr %11, align 8, !tbaa !15
  %15 = icmp eq ptr %14, null
  br i1 %15, label %21, label %16

16:                                               ; preds = %5
  %17 = load ptr, ptr %11, align 8, !tbaa !15
  %18 = load i32, ptr %17, align 4, !tbaa !24
  %19 = call noundef signext i8 @_ZL9U_FAILURE10UErrorCode(i32 noundef %18)
  %20 = icmp ne i8 %19, 0
  br i1 %20, label %21, label %22

21:                                               ; preds = %16, %5
  store ptr null, ptr %6, align 8
  store i32 1, ptr %13, align 4
  br label %55

22:                                               ; preds = %16
  %23 = load ptr, ptr %9, align 8, !tbaa !11
  %24 = icmp eq ptr %23, null
  br i1 %24, label %31, label %25

25:                                               ; preds = %22
  %26 = load ptr, ptr %8, align 8, !tbaa !8
  %27 = icmp eq ptr %26, null
  br i1 %27, label %31, label %28

28:                                               ; preds = %25
  %29 = load ptr, ptr %7, align 8, !tbaa !18
  %30 = icmp eq ptr %29, null
  br i1 %30, label %31, label %33

31:                                               ; preds = %28, %25, %22
  %32 = load ptr, ptr %11, align 8, !tbaa !15
  store i32 1, ptr %32, align 4, !tbaa !24
  store ptr null, ptr %6, align 8
  store i32 1, ptr %13, align 4
  br label %55

33:                                               ; preds = %28
  %34 = load ptr, ptr %7, align 8, !tbaa !18
  %35 = call ptr @T_FileStream_open(ptr noundef %34, ptr noundef @.str)
  store ptr %35, ptr %12, align 8, !tbaa !3
  %36 = load ptr, ptr %12, align 8, !tbaa !3
  %37 = icmp eq ptr %36, null
  br i1 %37, label %38, label %40

38:                                               ; preds = %33
  %39 = load ptr, ptr %11, align 8, !tbaa !15
  store i32 4, ptr %39, align 4, !tbaa !24
  store ptr null, ptr %6, align 8
  store i32 1, ptr %13, align 4
  br label %55

40:                                               ; preds = %33
  %41 = load ptr, ptr %12, align 8, !tbaa !3
  %42 = load ptr, ptr %8, align 8, !tbaa !8
  %43 = load ptr, ptr %9, align 8, !tbaa !11
  %44 = load ptr, ptr %10, align 8, !tbaa !13
  %45 = load ptr, ptr %11, align 8, !tbaa !15
  %46 = call signext i8 @ucbuf_autodetect_fs(ptr noundef %41, ptr noundef %42, ptr noundef %43, ptr noundef %44, ptr noundef %45)
  %47 = icmp ne i8 %46, 0
  br i1 %47, label %48, label %50

48:                                               ; preds = %40
  %49 = load ptr, ptr %12, align 8, !tbaa !3
  store ptr %49, ptr %6, align 8
  store i32 1, ptr %13, align 4
  br label %55

50:                                               ; preds = %40
  %51 = load ptr, ptr %9, align 8, !tbaa !11
  %52 = load ptr, ptr %51, align 8, !tbaa !20
  call void @ucnv_close_77(ptr noundef %52)
  %53 = load ptr, ptr %9, align 8, !tbaa !11
  store ptr null, ptr %53, align 8, !tbaa !20
  %54 = load ptr, ptr %12, align 8, !tbaa !3
  call void @T_FileStream_close(ptr noundef %54)
  store ptr null, ptr %6, align 8
  store i32 1, ptr %13, align 4
  br label %55

55:                                               ; preds = %50, %48, %38, %31, %21
  call void @llvm.lifetime.end.p0(i64 8, ptr %12) #10
  %56 = load ptr, ptr %6, align 8
  ret ptr %56
}