; Function Attrs: mustprogress uwtable
define ptr @ucbuf_autodetect(ptr noundef %0, ptr noundef %1, ptr noundef %2, ptr noundef %3, ptr noundef %4) local_unnamed_addr #0 {
  %6 = icmp eq ptr %4, null
  br i1 %6, label %23, label %7

7:                                                ; preds = %5
  %8 = load i32, ptr %4, align 4, !tbaa !14
  %9 = icmp slt i32 %8, 1
  br i1 %9, label %10, label %23

10:                                               ; preds = %7
  %11 = icmp eq ptr %2, null
  %12 = icmp eq ptr %1, null
  %or.cond = or i1 %12, %11
  %13 = icmp eq ptr %0, null
  %or.cond3 = or i1 %13, %or.cond
  br i1 %or.cond3, label %14, label %15

14:                                               ; preds = %10
  store i32 1, ptr %4, align 4, !tbaa !14
  br label %23

15:                                               ; preds = %10
  %16 = tail call ptr @T_FileStream_open(ptr noundef nonnull %0, ptr noundef nonnull @.str)
  %17 = icmp eq ptr %16, null
  br i1 %17, label %18, label %19

18:                                               ; preds = %15
  store i32 4, ptr %4, align 4, !tbaa !14
  br label %23

19:                                               ; preds = %15
  %20 = tail call signext i8 @ucbuf_autodetect_fs(ptr noundef nonnull %16, ptr noundef nonnull %1, ptr noundef nonnull %2, ptr noundef %3, ptr noundef nonnull %4)
  %.not27 = icmp eq i8 %20, 0
  br i1 %.not27, label %21, label %23

21:                                               ; preds = %19
  %22 = load ptr, ptr %2, align 8, !tbaa !10
  tail call void @ucnv_close_77(ptr noundef %22)
  store ptr null, ptr %2, align 8, !tbaa !10
  tail call void @T_FileStream_close(ptr noundef nonnull %16)
  br label %23

23:                                               ; preds = %19, %5, %7, %21, %18, %14
  %.0 = phi ptr [ null, %14 ], [ null, %18 ], [ null, %21 ], [ null, %7 ], [ null, %5 ], [ %16, %19 ]
  ret ptr %.0
}